; ModuleID = 'source-C-CXX/7/36.c'
source_filename = "source-C-CXX/7/36.c"
target datalayout = "e-m:e-p270:32:32-p271:32:32-p272:64:64-i64:64-f80:128-n8:16:32:64-S128"
target triple = "x86_64-pc-linux-gnu"

@.str = private unnamed_addr constant [5 x i8] c"%d%d\00", align 1
@.str.1 = private unnamed_addr constant [3 x i8] c"%d\00", align 1
@.str.3 = private unnamed_addr constant [4 x i8] c"%d \00", align 1

; Function Attrs: nofree nounwind sspstrong uwtable
define dso_local void @main() local_unnamed_addr #0 {
  %1 = alloca [10 x i32], align 16
  %2 = alloca [10 x i32], align 16
  %3 = alloca i32, align 4
  %4 = alloca i32, align 4
  %5 = bitcast [10 x i32]* %1 to i8*
  call void @llvm.lifetime.start.p0i8(i64 40, i8* nonnull %5) #5
  %6 = bitcast [10 x i32]* %2 to i8*
  call void @llvm.lifetime.start.p0i8(i64 40, i8* nonnull %6) #5
  %7 = bitcast i32* %3 to i8*
  call void @llvm.lifetime.start.p0i8(i64 4, i8* nonnull %7) #5
  %8 = bitcast i32* %4 to i8*
  call void @llvm.lifetime.start.p0i8(i64 4, i8* nonnull %8) #5
  %9 = call i32 (i8*, ...) @__isoc99_scanf(i8* getelementptr inbounds ([5 x i8], [5 x i8]* @.str, i64 0, i64 0), i32* nonnull %3, i32* nonnull %4)
  %10 = getelementptr inbounds [10 x i32], [10 x i32]* %1, i64 0, i64 0
  %11 = getelementptr inbounds [10 x i32], [10 x i32]* %2, i64 0, i64 0
  %12 = load i32, i32* %3, align 4, !tbaa !5
  %13 = load i32, i32* %4, align 4, !tbaa !5
  call void @shuru(i32* nonnull %10, i32* nonnull %11, i32 %12, i32 %13)
  call void @llvm.lifetime.end.p0i8(i64 4, i8* nonnull %8) #5
  call void @llvm.lifetime.end.p0i8(i64 4, i8* nonnull %7) #5
  call void @llvm.lifetime.end.p0i8(i64 40, i8* nonnull %6) #5
  call void @llvm.lifetime.end.p0i8(i64 40, i8* nonnull %5) #5
  ret void
}

; Function Attrs: argmemonly mustprogress nofree nosync nounwind willreturn
declare void @llvm.lifetime.start.p0i8(i64 immarg, i8* nocapture) #1

; Function Attrs: nofree nounwind
declare noundef i32 @__isoc99_scanf(i8* nocapture noundef readonly, ...) local_unnamed_addr #2

; Function Attrs: nofree nounwind sspstrong uwtable
define dso_local void @shuru(i32* %0, i32* %1, i32 %2, i32 %3) local_unnamed_addr #0 {
  %5 = icmp sgt i32 %2, 0
  br i1 %5, label %6, label %8

6:                                                ; preds = %4
  %7 = zext i32 %2 to i64
  br label %12

8:                                                ; preds = %12, %4
  %9 = icmp sgt i32 %3, 0
  br i1 %9, label %10, label %24

10:                                               ; preds = %8
  %11 = zext i32 %3 to i64
  br label %18

12:                                               ; preds = %6, %12
  %13 = phi i64 [ 0, %6 ], [ %16, %12 ]
  %14 = getelementptr inbounds i32, i32* %0, i64 %13
  %15 = tail call i32 (i8*, ...) @__isoc99_scanf(i8* getelementptr inbounds ([3 x i8], [3 x i8]* @.str.1, i64 0, i64 0), i32* %14)
  %16 = add nuw nsw i64 %13, 1
  %17 = icmp eq i64 %16, %7
  br i1 %17, label %8, label %12, !llvm.loop !9

18:                                               ; preds = %10, %18
  %19 = phi i64 [ 0, %10 ], [ %22, %18 ]
  %20 = getelementptr inbounds i32, i32* %1, i64 %19
  %21 = tail call i32 (i8*, ...) @__isoc99_scanf(i8* getelementptr inbounds ([3 x i8], [3 x i8]* @.str.1, i64 0, i64 0), i32* %20)
  %22 = add nuw nsw i64 %19, 1
  %23 = icmp eq i64 %22, %11
  br i1 %23, label %24, label %18, !llvm.loop !11

24:                                               ; preds = %18, %8
  %25 = tail call i32 @putchar(i32 10)
  %26 = add i32 %2, -1
  %27 = icmp sgt i32 %2, 1
  br i1 %27, label %28, label %69

28:                                               ; preds = %24, %66
  %29 = phi i32 [ %67, %66 ], [ 0, %24 ]
  %30 = sub i32 %26, %29
  %31 = zext i32 %30 to i64
  %32 = icmp sgt i32 %26, %29
  br i1 %32, label %33, label %66

33:                                               ; preds = %28
  %34 = load i32, i32* %0, align 4, !tbaa !5
  %35 = and i64 %31, 1
  %36 = icmp eq i32 %30, 1
  br i1 %36, label %55, label %37

37:                                               ; preds = %33
  %38 = and i64 %31, 4294967294
  br label %39

39:                                               ; preds = %141, %37
  %40 = phi i32 [ %34, %37 ], [ %142, %141 ]
  %41 = phi i64 [ 0, %37 ], [ %51, %141 ]
  %42 = phi i64 [ %38, %37 ], [ %143, %141 ]
  %43 = or i64 %41, 1
  %44 = getelementptr inbounds i32, i32* %0, i64 %43
  %45 = load i32, i32* %44, align 4, !tbaa !5
  %46 = icmp sgt i32 %40, %45
  br i1 %46, label %47, label %49

47:                                               ; preds = %39
  %48 = getelementptr inbounds i32, i32* %0, i64 %41
  store i32 %45, i32* %48, align 4, !tbaa !5
  store i32 %40, i32* %44, align 4, !tbaa !5
  br label %49

49:                                               ; preds = %47, %39
  %50 = phi i32 [ %45, %39 ], [ %40, %47 ]
  %51 = add nuw nsw i64 %41, 2
  %52 = getelementptr inbounds i32, i32* %0, i64 %51
  %53 = load i32, i32* %52, align 4, !tbaa !5
  %54 = icmp sgt i32 %50, %53
  br i1 %54, label %139, label %141

55:                                               ; preds = %141, %33
  %56 = phi i32 [ %34, %33 ], [ %142, %141 ]
  %57 = phi i64 [ 0, %33 ], [ %51, %141 ]
  %58 = icmp eq i64 %35, 0
  br i1 %58, label %66, label %59

59:                                               ; preds = %55
  %60 = add nuw nsw i64 %57, 1
  %61 = getelementptr inbounds i32, i32* %0, i64 %60
  %62 = load i32, i32* %61, align 4, !tbaa !5
  %63 = icmp sgt i32 %56, %62
  br i1 %63, label %64, label %66

64:                                               ; preds = %59
  %65 = getelementptr inbounds i32, i32* %0, i64 %57
  store i32 %62, i32* %65, align 4, !tbaa !5
  store i32 %56, i32* %61, align 4, !tbaa !5
  br label %66

66:                                               ; preds = %55, %59, %64, %28
  %67 = add nuw nsw i32 %29, 1
  %68 = icmp eq i32 %67, %26
  br i1 %68, label %69, label %28, !llvm.loop !12

69:                                               ; preds = %66, %24
  %70 = add i32 %3, -1
  %71 = icmp sgt i32 %3, 1
  br i1 %71, label %72, label %113

72:                                               ; preds = %69, %110
  %73 = phi i32 [ %111, %110 ], [ 0, %69 ]
  %74 = sub i32 %70, %73
  %75 = zext i32 %74 to i64
  %76 = icmp sgt i32 %70, %73
  br i1 %76, label %77, label %110

77:                                               ; preds = %72
  %78 = load i32, i32* %1, align 4, !tbaa !5
  %79 = and i64 %75, 1
  %80 = icmp eq i32 %74, 1
  br i1 %80, label %99, label %81

81:                                               ; preds = %77
  %82 = and i64 %75, 4294967294
  br label %83

83:                                               ; preds = %147, %81
  %84 = phi i32 [ %78, %81 ], [ %148, %147 ]
  %85 = phi i64 [ 0, %81 ], [ %95, %147 ]
  %86 = phi i64 [ %82, %81 ], [ %149, %147 ]
  %87 = or i64 %85, 1
  %88 = getelementptr inbounds i32, i32* %1, i64 %87
  %89 = load i32, i32* %88, align 4, !tbaa !5
  %90 = icmp sgt i32 %84, %89
  br i1 %90, label %91, label %93

91:                                               ; preds = %83
  %92 = getelementptr inbounds i32, i32* %1, i64 %85
  store i32 %89, i32* %92, align 4, !tbaa !5
  store i32 %84, i32* %88, align 4, !tbaa !5
  br label %93

93:                                               ; preds = %91, %83
  %94 = phi i32 [ %89, %83 ], [ %84, %91 ]
  %95 = add nuw nsw i64 %85, 2
  %96 = getelementptr inbounds i32, i32* %1, i64 %95
  %97 = load i32, i32* %96, align 4, !tbaa !5
  %98 = icmp sgt i32 %94, %97
  br i1 %98, label %145, label %147

99:                                               ; preds = %147, %77
  %100 = phi i32 [ %78, %77 ], [ %148, %147 ]
  %101 = phi i64 [ 0, %77 ], [ %95, %147 ]
  %102 = icmp eq i64 %79, 0
  br i1 %102, label %110, label %103

103:                                              ; preds = %99
  %104 = add nuw nsw i64 %101, 1
  %105 = getelementptr inbounds i32, i32* %1, i64 %104
  %106 = load i32, i32* %105, align 4, !tbaa !5
  %107 = icmp sgt i32 %100, %106
  br i1 %107, label %108, label %110

108:                                              ; preds = %103
  %109 = getelementptr inbounds i32, i32* %1, i64 %101
  store i32 %106, i32* %109, align 4, !tbaa !5
  store i32 %100, i32* %105, align 4, !tbaa !5
  br label %110

110:                                              ; preds = %99, %103, %108, %72
  %111 = add nuw nsw i32 %73, 1
  %112 = icmp eq i32 %111, %70
  br i1 %112, label %113, label %72, !llvm.loop !12

113:                                              ; preds = %110, %69
  br i1 %5, label %114, label %116

114:                                              ; preds = %113
  %115 = zext i32 %2 to i64
  br label %120

116:                                              ; preds = %120, %113
  %117 = icmp sgt i32 %70, 0
  br i1 %117, label %118, label %134

118:                                              ; preds = %116
  %119 = zext i32 %70 to i64
  br label %127

120:                                              ; preds = %114, %120
  %121 = phi i64 [ 0, %114 ], [ %125, %120 ]
  %122 = getelementptr inbounds i32, i32* %0, i64 %121
  %123 = load i32, i32* %122, align 4, !tbaa !5
  %124 = tail call i32 (i8*, ...) @printf(i8* nonnull dereferenceable(1) getelementptr inbounds ([4 x i8], [4 x i8]* @.str.3, i64 0, i64 0), i32 %123)
  %125 = add nuw nsw i64 %121, 1
  %126 = icmp eq i64 %125, %115
  br i1 %126, label %116, label %120, !llvm.loop !13

127:                                              ; preds = %118, %127
  %128 = phi i64 [ 0, %118 ], [ %132, %127 ]
  %129 = getelementptr inbounds i32, i32* %1, i64 %128
  %130 = load i32, i32* %129, align 4, !tbaa !5
  %131 = tail call i32 (i8*, ...) @printf(i8* nonnull dereferenceable(1) getelementptr inbounds ([4 x i8], [4 x i8]* @.str.3, i64 0, i64 0), i32 %130)
  %132 = add nuw nsw i64 %128, 1
  %133 = icmp eq i64 %132, %119
  br i1 %133, label %134, label %127, !llvm.loop !14

134:                                              ; preds = %127, %116
  %135 = sext i32 %70 to i64
  %136 = getelementptr inbounds i32, i32* %1, i64 %135
  %137 = load i32, i32* %136, align 4, !tbaa !5
  %138 = tail call i32 (i8*, ...) @printf(i8* nonnull dereferenceable(1) getelementptr inbounds ([3 x i8], [3 x i8]* @.str.1, i64 0, i64 0), i32 %137)
  ret void

139:                                              ; preds = %49
  %140 = getelementptr inbounds i32, i32* %0, i64 %43
  store i32 %53, i32* %140, align 4, !tbaa !5
  store i32 %50, i32* %52, align 4, !tbaa !5
  br label %141

141:                                              ; preds = %139, %49
  %142 = phi i32 [ %53, %49 ], [ %50, %139 ]
  %143 = add i64 %42, -2
  %144 = icmp eq i64 %143, 0
  br i1 %144, label %55, label %39, !llvm.loop !15

145:                                              ; preds = %93
  %146 = getelementptr inbounds i32, i32* %1, i64 %87
  store i32 %97, i32* %146, align 4, !tbaa !5
  store i32 %94, i32* %96, align 4, !tbaa !5
  br label %147

147:                                              ; preds = %145, %93
  %148 = phi i32 [ %97, %93 ], [ %94, %145 ]
  %149 = add i64 %86, -2
  %150 = icmp eq i64 %149, 0
  br i1 %150, label %99, label %83, !llvm.loop !15
}

; Function Attrs: argmemonly mustprogress nofree nosync nounwind willreturn
declare void @llvm.lifetime.end.p0i8(i64 immarg, i8* nocapture) #1

; Function Attrs: nofree nounwind
declare noundef i32 @printf(i8* nocapture noundef readonly, ...) local_unnamed_addr #2

; Function Attrs: nofree norecurse nosync nounwind sspstrong uwtable
define dso_local void @pai(i32* nocapture %0, i32 %1) local_unnamed_addr #3 {
  %3 = add i32 %1, -1
  %4 = icmp sgt i32 %1, 1
  br i1 %4, label %5, label %46

5:                                                ; preds = %2, %43
  %6 = phi i32 [ %44, %43 ], [ 0, %2 ]
  %7 = sub i32 %3, %6
  %8 = zext i32 %7 to i64
  %9 = icmp sgt i32 %3, %6
  br i1 %9, label %10, label %43

10:                                               ; preds = %5
  %11 = load i32, i32* %0, align 4, !tbaa !5
  %12 = and i64 %8, 1
  %13 = icmp eq i32 %7, 1
  br i1 %13, label %32, label %14

14:                                               ; preds = %10
  %15 = and i64 %8, 4294967294
  br label %16

16:                                               ; preds = %49, %14
  %17 = phi i32 [ %11, %14 ], [ %50, %49 ]
  %18 = phi i64 [ 0, %14 ], [ %28, %49 ]
  %19 = phi i64 [ %15, %14 ], [ %51, %49 ]
  %20 = or i64 %18, 1
  %21 = getelementptr inbounds i32, i32* %0, i64 %20
  %22 = load i32, i32* %21, align 4, !tbaa !5
  %23 = icmp sgt i32 %17, %22
  br i1 %23, label %24, label %26

24:                                               ; preds = %16
  %25 = getelementptr inbounds i32, i32* %0, i64 %18
  store i32 %22, i32* %25, align 4, !tbaa !5
  store i32 %17, i32* %21, align 4, !tbaa !5
  br label %26

26:                                               ; preds = %16, %24
  %27 = phi i32 [ %22, %16 ], [ %17, %24 ]
  %28 = add nuw nsw i64 %18, 2
  %29 = getelementptr inbounds i32, i32* %0, i64 %28
  %30 = load i32, i32* %29, align 4, !tbaa !5
  %31 = icmp sgt i32 %27, %30
  br i1 %31, label %47, label %49

32:                                               ; preds = %49, %10
  %33 = phi i32 [ %11, %10 ], [ %50, %49 ]
  %34 = phi i64 [ 0, %10 ], [ %28, %49 ]
  %35 = icmp eq i64 %12, 0
  br i1 %35, label %43, label %36

36:                                               ; preds = %32
  %37 = add nuw nsw i64 %34, 1
  %38 = getelementptr inbounds i32, i32* %0, i64 %37
  %39 = load i32, i32* %38, align 4, !tbaa !5
  %40 = icmp sgt i32 %33, %39
  br i1 %40, label %41, label %43

41:                                               ; preds = %36
  %42 = getelementptr inbounds i32, i32* %0, i64 %34
  store i32 %39, i32* %42, align 4, !tbaa !5
  store i32 %33, i32* %38, align 4, !tbaa !5
  br label %43

43:                                               ; preds = %32, %36, %41, %5
  %44 = add nuw nsw i32 %6, 1
  %45 = icmp eq i32 %44, %3
  br i1 %45, label %46, label %5, !llvm.loop !12

46:                                               ; preds = %43, %2
  ret void

47:                                               ; preds = %26
  %48 = getelementptr inbounds i32, i32* %0, i64 %20
  store i32 %30, i32* %48, align 4, !tbaa !5
  store i32 %27, i32* %29, align 4, !tbaa !5
  br label %49

49:                                               ; preds = %47, %26
  %50 = phi i32 [ %30, %26 ], [ %27, %47 ]
  %51 = add i64 %19, -2
  %52 = icmp eq i64 %51, 0
  br i1 %52, label %32, label %16, !llvm.loop !15
}

; Function Attrs: nofree nounwind
declare noundef i32 @putchar(i32 noundef) local_unnamed_addr #4


!llvm.module.flags = !{!0, !1, !2, !3}
!llvm.ident = !{!4}

!0 = !{i32 1, !"wchar_size", i32 4}
!1 = !{i32 7, !"PIC Level", i32 2}
!2 = !{i32 7, !"PIE Level", i32 2}
!3 = !{i32 7, !"uwtable", i32 1}
!4 = !{!"clang version 13.0.0"}
!5 = !{!6, !6, i64 0}
!6 = !{!"int", !7, i64 0}
!7 = !{!"omnipotent char", !8, i64 0}
!8 = !{!"Simple C/C++ TBAA"}
!9 = distinct !{!9, !10}
!10 = !{!"llvm.loop.mustprogress"}
!11 = distinct !{!11, !10}
!12 = distinct !{!12, !10}
!13 = distinct !{!13, !10}
!14 = distinct !{!14, !10}
!15 = distinct !{!15, !10}
